target datalayout = "e-m:e-p270:32:32-p271:32:32-p272:64:64-i64:64-i128:128-f80:128-n8:16:32:64-S128"
target triple = "x86_64-pc-linux-gnu"

%"class.std::__cxx11::basic_string" = type { %"struct.std::__cxx11::basic_string<char>::_Alloc_hider", i64, %union.anon }
%"struct.std::__cxx11::basic_string<char>::_Alloc_hider" = type { ptr }
%union.anon = type { i64, [8 x i8] }
%"class.xgboost::MultiTargetTree" = type { %"struct.xgboost::Model", ptr, %"class.std::vector", %"class.std::vector", %"class.std::vector", %"class.std::vector.3", %"class.std::vector.8", %"class.std::vector.13", %"class.std::vector.13" }
%"struct.xgboost::Model" = type { ptr }
%"class.std::vector" = type { %"struct.std::_Vector_base" }
%"struct.std::_Vector_base" = type { %"struct.std::_Vector_base<int, std::allocator<int>>::_Vector_impl" }
%"struct.std::_Vector_base<int, std::allocator<int>>::_Vector_impl" = type { %"struct.std::_Vector_base<int, std::allocator<int>>::_Vector_impl_data" }
%"struct.std::_Vector_base<int, std::allocator<int>>::_Vector_impl_data" = type { ptr, ptr, ptr }
%"class.std::vector.3" = type { %"struct.std::_Vector_base.4" }
%"struct.std::_Vector_base.4" = type { %"struct.std::_Vector_base<unsigned int, std::allocator<unsigned int>>::_Vector_impl" }
%"struct.std::_Vector_base<unsigned int, std::allocator<unsigned int>>::_Vector_impl" = type { %"struct.std::_Vector_base<unsigned int, std::allocator<unsigned int>>::_Vector_impl_data" }
%"struct.std::_Vector_base<unsigned int, std::allocator<unsigned int>>::_Vector_impl_data" = type { ptr, ptr, ptr }
%"class.std::vector.8" = type { %"struct.std::_Vector_base.9" }
%"struct.std::_Vector_base.9" = type { %"struct.std::_Vector_base<unsigned char, std::allocator<unsigned char>>::_Vector_impl" }
%"struct.std::_Vector_base<unsigned char, std::allocator<unsigned char>>::_Vector_impl" = type { %"struct.std::_Vector_base<unsigned char, std::allocator<unsigned char>>::_Vector_impl_data" }
%"struct.std::_Vector_base<unsigned char, std::allocator<unsigned char>>::_Vector_impl_data" = type { ptr, ptr, ptr }
%"class.std::vector.13" = type { %"struct.std::_Vector_base.14" }
%"struct.std::_Vector_base.14" = type { %"struct.std::_Vector_base<float, std::allocator<float>>::_Vector_impl" }
%"struct.std::_Vector_base<float, std::allocator<float>>::_Vector_impl" = type { %"struct.std::_Vector_base<float, std::allocator<float>>::_Vector_impl_data" }
%"struct.std::_Vector_base<float, std::allocator<float>>::_Vector_impl_data" = type { ptr, ptr, ptr }
%"class.xgboost::Json" = type { %"class.xgboost::IntrusivePtr" }
%"class.xgboost::IntrusivePtr" = type { ptr }
%"class.xgboost::Value" = type { ptr, %"class.xgboost::IntrusivePtrCell", i32 }
%"class.xgboost::IntrusivePtrCell" = type { %"struct.std::atomic" }
%"struct.std::atomic" = type { %"struct.std::__atomic_base" }
%"struct.std::__atomic_base" = type { i32 }

@_ZN7xgboost10tree_field11kBaseWeightB5cxx11E = linkonce_odr global %"class.std::__cxx11::basic_string" zeroinitializer, comdat, align 8
@_ZN7xgboost10tree_field9kSplitIdxB5cxx11E = linkonce_odr global %"class.std::__cxx11::basic_string" zeroinitializer, comdat, align 8

; Function Attrs: mustprogress nounwind uwtable
define linkonce_odr noundef i32 @_ZNK7xgboost5Value4TypeEv(ptr noundef nonnull align 8 dereferenceable(16) %0) #5 comdat align 2 {
  %2 = alloca ptr, align 8
  store ptr %0, ptr %2, align 8
  %3 = load ptr, ptr %2, align 8
  %4 = getelementptr inbounds %"class.xgboost::Value", ptr %3, i32 0, i32 2
  %5 = load i32, ptr %4, align 4
  ret i32 %5
}

; Function Attrs: mustprogress nounwind uwtable
define linkonce_odr noundef zeroext i1 @_ZN7xgboost14JsonTypedArrayIlLNS_5Value9ValueKindE11EE9IsClassOfEPKS1_(ptr noundef %0) #5 comdat align 2 {
  %2 = alloca ptr, align 8
  store ptr %0, ptr %2, align 8
  %3 = load ptr, ptr %2, align 8
  %4 = call noundef i32 @_ZNK7xgboost5Value4TypeEv(ptr noundef nonnull align 8 dereferenceable(16) %3)
  %5 = icmp eq i32 %4, 11
  ret i1 %5
}

; Function Attrs: mustprogress uwtable
define linkonce_odr noundef zeroext i1 @_ZN7xgboost14JsonTypedArrayIfLNS_5Value9ValueKindE7EE9IsClassOfEPKS1_(ptr noundef %0) #4 comdat align 2 {
  %2 = alloca ptr, align 8
  store ptr %0, ptr %2, align 8
  %3 = load ptr, ptr %2, align 8
  %4 = call noundef i32 @_ZNK7xgboost5Value4TypeEv(ptr noundef nonnull align 8 dereferenceable(16) %3)
  %5 = icmp eq i32 %4, 7
  ret i1 %5
}

; Function Attrs: mustprogress uwtable
define linkonce_odr noundef zeroext i1 @_ZN7xgboost3IsAINS_14JsonTypedArrayIlLNS_5Value9ValueKindE11EEEEEbPKS2_(ptr noundef %0) #4 comdat {
  %2 = alloca ptr, align 8
  store ptr %0, ptr %2, align 8
  %3 = load ptr, ptr %2, align 8
  %4 = call noundef zeroext i1 @_ZN7xgboost14JsonTypedArrayIlLNS_5Value9ValueKindE11EE9IsClassOfEPKS1_(ptr noundef %3)
  ret i1 %4
}

; Function Attrs: mustprogress uwtable
define linkonce_odr noundef zeroext i1 @_ZN7xgboost3IsAINS_14JsonTypedArrayIfLNS_5Value9ValueKindE7EEEEEbPKS2_(ptr noundef %0) #4 comdat {
  %2 = alloca ptr, align 8
  store ptr %0, ptr %2, align 8
  %3 = load ptr, ptr %2, align 8
  %4 = call noundef zeroext i1 @_ZN7xgboost14JsonTypedArrayIfLNS_5Value9ValueKindE7EE9IsClassOfEPKS1_(ptr noundef %3)
  ret i1 %4
}

; Function Attrs: mustprogress nounwind uwtable
define linkonce_odr noundef nonnull align 8 dereferenceable(16) ptr @_ZNKR7xgboost4Json8GetValueEv(ptr noundef nonnull align 8 dereferenceable(8) %0) #5 comdat align 2 {
  %2 = alloca ptr, align 8
  store ptr %0, ptr %2, align 8
  %3 = load ptr, ptr %2, align 8
  %4 = getelementptr inbounds %"class.xgboost::Json", ptr %3, i32 0, i32 0
  %5 = call noundef nonnull align 8 dereferenceable(16) ptr @_ZNK7xgboost12IntrusivePtrINS_5ValueEEdeEv(ptr noundef nonnull align 8 dereferenceable(8) %4) #3
  ret ptr %5
}

; Function Attrs: mustprogress nounwind uwtable
define linkonce_odr noundef nonnull align 8 dereferenceable(16) ptr @_ZNK7xgboost12IntrusivePtrINS_5ValueEEdeEv(ptr noundef nonnull align 8 dereferenceable(8) %0) #5 comdat align 2 {
  %2 = alloca ptr, align 8
  store ptr %0, ptr %2, align 8
  %3 = load ptr, ptr %2, align 8
  %4 = getelementptr inbounds %"class.xgboost::IntrusivePtr", ptr %3, i32 0, i32 0
  %5 = load ptr, ptr %4, align 8
  ret ptr %5
}

; Function Attrs: mustprogress uwtable
define linkonce_odr noundef zeroext i1 @_ZN7xgboost3IsAINS_14JsonTypedArrayIlLNS_5Value9ValueKindE11EEEEEbRKNS_4JsonE(ptr noundef nonnull align 8 dereferenceable(8) %0) #4 comdat {
  %2 = alloca ptr, align 8
  %3 = alloca ptr, align 8
  store ptr %0, ptr %2, align 8
  %4 = load ptr, ptr %2, align 8
  %5 = call noundef nonnull align 8 dereferenceable(16) ptr @_ZNKR7xgboost4Json8GetValueEv(ptr noundef nonnull align 8 dereferenceable(8) %4)
  store ptr %5, ptr %3, align 8
  %6 = load ptr, ptr %3, align 8
  %7 = call noundef zeroext i1 @_ZN7xgboost3IsAINS_14JsonTypedArrayIlLNS_5Value9ValueKindE11EEEEEbPKS2_(ptr noundef %6)
  ret i1 %7
}

; Function Attrs: mustprogress uwtable
define linkonce_odr noundef zeroext i1 @_ZN7xgboost3IsAINS_14JsonTypedArrayIfLNS_5Value9ValueKindE7EEEEEbRKNS_4JsonE(ptr noundef nonnull align 8 dereferenceable(8) %0) #4 comdat {
  %2 = alloca ptr, align 8
  %3 = alloca ptr, align 8
  store ptr %0, ptr %2, align 8
  %4 = load ptr, ptr %2, align 8
  %5 = call noundef nonnull align 8 dereferenceable(16) ptr @_ZNKR7xgboost4Json8GetValueEv(ptr noundef nonnull align 8 dereferenceable(8) %4)
  store ptr %5, ptr %3, align 8
  %6 = load ptr, ptr %3, align 8
  %7 = call noundef zeroext i1 @_ZN7xgboost3IsAINS_14JsonTypedArrayIfLNS_5Value9ValueKindE7EEEEEbPKS2_(ptr noundef %6)
  ret i1 %7
}

; Function Attrs: mustprogress uwtable
define linkonce_odr noundef nonnull align 8 dereferenceable(8) ptr @_ZNK7xgboost4JsonixERKNSt7__cxx1112basic_stringIcSt11char_traitsIcESaIcEEE(ptr noundef nonnull align 8 dereferenceable(8) %0, ptr noundef nonnull align 8 dereferenceable(32) %1) #4 comdat align 2 {
  %3 = alloca ptr, align 8
  %4 = alloca ptr, align 8
  store ptr %0, ptr %3, align 8
  store ptr %1, ptr %4, align 8
  %5 = load ptr, ptr %3, align 8
  %6 = getelementptr inbounds %"class.xgboost::Json", ptr %5, i32 0, i32 0
  %7 = call noundef nonnull align 8 dereferenceable(16) ptr @_ZNK7xgboost12IntrusivePtrINS_5ValueEEdeEv(ptr noundef nonnull align 8 dereferenceable(8) %6) #3
  %8 = load ptr, ptr %4, align 8
  %9 = load ptr, ptr %7, align 8
  %10 = getelementptr inbounds ptr, ptr %9, i64 3
  %11 = load ptr, ptr %10, align 8
  %12 = call noundef nonnull align 8 dereferenceable(8) ptr %11(ptr noundef nonnull align 8 dereferenceable(16) %7, ptr noundef nonnull align 8 dereferenceable(32) %8)
  ret ptr %12
}

; Function Attrs: mustprogress uwtable
define void @_ZN7xgboost15MultiTargetTree9LoadModelERKNS_4JsonE(ptr noundef nonnull align 8 dereferenceable(184) %0, ptr noundef nonnull align 8 dereferenceable(8) %1) unnamed_addr #4 align 2 {
  %3 = alloca ptr, align 8
  %4 = alloca ptr, align 8
  %5 = alloca i8, align 1
  %6 = alloca i8, align 1
  store ptr %0, ptr %3, align 8
  store ptr %1, ptr %4, align 8
  %7 = load ptr, ptr %3, align 8
  %8 = load ptr, ptr %4, align 8
  %9 = call noundef nonnull align 8 dereferenceable(8) ptr @_ZNK7xgboost4JsonixERKNSt7__cxx1112basic_stringIcSt11char_traitsIcESaIcEEE(ptr noundef nonnull align 8 dereferenceable(8) %8, ptr noundef nonnull align 8 dereferenceable(32) @_ZN7xgboost10tree_field11kBaseWeightB5cxx11E)
  %10 = call noundef zeroext i1 @_ZN7xgboost3IsAINS_14JsonTypedArrayIfLNS_5Value9ValueKindE7EEEEEbRKNS_4JsonE(ptr noundef nonnull align 8 dereferenceable(8) %9)
  %11 = zext i1 %10 to i8
  store i8 %11, ptr %5, align 1
  %12 = load ptr, ptr %4, align 8
  %13 = call noundef nonnull align 8 dereferenceable(8) ptr @_ZNK7xgboost4JsonixERKNSt7__cxx1112basic_stringIcSt11char_traitsIcESaIcEEE(ptr noundef nonnull align 8 dereferenceable(8) %12, ptr noundef nonnull align 8 dereferenceable(32) @_ZN7xgboost10tree_field9kSplitIdxB5cxx11E)
  %14 = call noundef zeroext i1 @_ZN7xgboost3IsAINS_14JsonTypedArrayIlLNS_5Value9ValueKindE11EEEEEbRKNS_4JsonE(ptr noundef nonnull align 8 dereferenceable(8) %13)
  %15 = zext i1 %14 to i8
  store i8 %15, ptr %6, align 1
  %16 = load i8, ptr %5, align 1
  %17 = trunc i8 %16 to i1
  br i1 %17, label %18, label %30

18:                                               ; preds = %2
  %19 = load i8, ptr %6, align 1
  %20 = trunc i8 %19 to i1
  br i1 %20, label %21, label %30

21:                                               ; preds = %18
  %22 = load ptr, ptr %4, align 8
  %23 = getelementptr inbounds %"class.xgboost::MultiTargetTree", ptr %7, i32 0, i32 8
  %24 = getelementptr inbounds %"class.xgboost::MultiTargetTree", ptr %7, i32 0, i32 2
  %25 = getelementptr inbounds %"class.xgboost::MultiTargetTree", ptr %7, i32 0, i32 3
  %26 = getelementptr inbounds %"class.xgboost::MultiTargetTree", ptr %7, i32 0, i32 4
  %27 = getelementptr inbounds %"class.xgboost::MultiTargetTree", ptr %7, i32 0, i32 7
  %28 = getelementptr inbounds %"class.xgboost::MultiTargetTree", ptr %7, i32 0, i32 5
  %29 = getelementptr inbounds %"class.xgboost::MultiTargetTree", ptr %7, i32 0, i32 6
  call void @_ZN7xgboost13LoadModelImplILb1ELb1EEEvRKNS_4JsonEPSt6vectorIfSaIfEEPS4_IiSaIiEESA_SA_S7_PS4_IjSaIjEEPS4_IhSaIhEE(ptr noundef nonnull align 8 dereferenceable(8) %22, ptr noundef %23, ptr noundef %24, ptr noundef %25, ptr noundef %26, ptr noundef %27, ptr noundef %28, ptr noundef %29)
  br label %71

30:                                               ; preds = %18, %2
  %31 = load i8, ptr %5, align 1
  %32 = trunc i8 %31 to i1
  br i1 %32, label %33, label %45

33:                                               ; preds = %30
  %34 = load i8, ptr %6, align 1
  %35 = trunc i8 %34 to i1
  br i1 %35, label %45, label %36

36:                                               ; preds = %33
  %37 = load ptr, ptr %4, align 8
  %38 = getelementptr inbounds %"class.xgboost::MultiTargetTree", ptr %7, i32 0, i32 8
  %39 = getelementptr inbounds %"class.xgboost::MultiTargetTree", ptr %7, i32 0, i32 2
  %40 = getelementptr inbounds %"class.xgboost::MultiTargetTree", ptr %7, i32 0, i32 3
  %41 = getelementptr inbounds %"class.xgboost::MultiTargetTree", ptr %7, i32 0, i32 4
  %42 = getelementptr inbounds %"class.xgboost::MultiTargetTree", ptr %7, i32 0, i32 7
  %43 = getelementptr inbounds %"class.xgboost::MultiTargetTree", ptr %7, i32 0, i32 5
  %44 = getelementptr inbounds %"class.xgboost::MultiTargetTree", ptr %7, i32 0, i32 6
  call void @_ZN7xgboost13LoadModelImplILb1ELb0EEEvRKNS_4JsonEPSt6vectorIfSaIfEEPS4_IiSaIiEESA_SA_S7_PS4_IjSaIjEEPS4_IhSaIhEE(ptr noundef nonnull align 8 dereferenceable(8) %37, ptr noundef %38, ptr noundef %39, ptr noundef %40, ptr noundef %41, ptr noundef %42, ptr noundef %43, ptr noundef %44)
  br label %70

45:                                               ; preds = %33, %30
  %46 = load i8, ptr %5, align 1
  %47 = trunc i8 %46 to i1
  br i1 %47, label %60, label %48

48:                                               ; preds = %45
  %49 = load i8, ptr %6, align 1
  %50 = trunc i8 %49 to i1
  br i1 %50, label %51, label %60

51:                                               ; preds = %48
  %52 = load ptr, ptr %4, align 8
  %53 = getelementptr inbounds %"class.xgboost::MultiTargetTree", ptr %7, i32 0, i32 8
  %54 = getelementptr inbounds %"class.xgboost::MultiTargetTree", ptr %7, i32 0, i32 2
  %55 = getelementptr inbounds %"class.xgboost::MultiTargetTree", ptr %7, i32 0, i32 3
  %56 = getelementptr inbounds %"class.xgboost::MultiTargetTree", ptr %7, i32 0, i32 4
  %57 = getelementptr inbounds %"class.xgboost::MultiTargetTree", ptr %7, i32 0, i32 7
  %58 = getelementptr inbounds %"class.xgboost::MultiTargetTree", ptr %7, i32 0, i32 5
  %59 = getelementptr inbounds %"class.xgboost::MultiTargetTree", ptr %7, i32 0, i32 6
  call void @_ZN7xgboost13LoadModelImplILb0ELb1EEEvRKNS_4JsonEPSt6vectorIfSaIfEEPS4_IiSaIiEESA_SA_S7_PS4_IjSaIjEEPS4_IhSaIhEE(ptr noundef nonnull align 8 dereferenceable(8) %52, ptr noundef %53, ptr noundef %54, ptr noundef %55, ptr noundef %56, ptr noundef %57, ptr noundef %58, ptr noundef %59)
  br label %69

60:                                               ; preds = %48, %45
  %61 = load ptr, ptr %4, align 8
  %62 = getelementptr inbounds %"class.xgboost::MultiTargetTree", ptr %7, i32 0, i32 8
  %63 = getelementptr inbounds %"class.xgboost::MultiTargetTree", ptr %7, i32 0, i32 2
  %64 = getelementptr inbounds %"class.xgboost::MultiTargetTree", ptr %7, i32 0, i32 3
  %65 = getelementptr inbounds %"class.xgboost::MultiTargetTree", ptr %7, i32 0, i32 4
  %66 = getelementptr inbounds %"class.xgboost::MultiTargetTree", ptr %7, i32 0, i32 7
  %67 = getelementptr inbounds %"class.xgboost::MultiTargetTree", ptr %7, i32 0, i32 5
  %68 = getelementptr inbounds %"class.xgboost::MultiTargetTree", ptr %7, i32 0, i32 6
  call void @_ZN7xgboost13LoadModelImplILb0ELb0EEEvRKNS_4JsonEPSt6vectorIfSaIfEEPS4_IiSaIiEESA_SA_S7_PS4_IjSaIjEEPS4_IhSaIhEE(ptr noundef nonnull align 8 dereferenceable(8) %61, ptr noundef %62, ptr noundef %63, ptr noundef %64, ptr noundef %65, ptr noundef %66, ptr noundef %67, ptr noundef %68)
  br label %69

69:                                               ; preds = %60, %51
  br label %70

70:                                               ; preds = %69, %36
  br label %71

71:                                               ; preds = %70, %21
  ret void
}