; Function Attrs: mustprogress uwtable
define void @_ZN7xgboost15MultiTargetTree9LoadModelERKNS_4JsonE(ptr noundef nonnull align 8 dereferenceable(184) %0, ptr noundef nonnull align 8 dereferenceable(8) %1) unnamed_addr #4 align 2 {
  %3 = load ptr, ptr %1, align 8
  %4 = load ptr, ptr %3, align 8
  %5 = getelementptr inbounds i8, ptr %4, i64 24
  %6 = load ptr, ptr %5, align 8
  %7 = tail call noundef nonnull align 8 dereferenceable(8) ptr %6(ptr noundef nonnull align 8 dereferenceable(16) %3, ptr noundef nonnull align 8 dereferenceable(32) @_ZN7xgboost10tree_field11kBaseWeightB5cxx11E)
  %8 = load ptr, ptr %7, align 8
  %9 = getelementptr inbounds i8, ptr %8, i64 12
  %10 = load i32, ptr %9, align 4
  %11 = icmp eq i32 %10, 7
  %12 = load ptr, ptr %1, align 8
  %13 = load ptr, ptr %12, align 8
  %14 = getelementptr inbounds i8, ptr %13, i64 24
  %15 = load ptr, ptr %14, align 8
  %16 = tail call noundef nonnull align 8 dereferenceable(8) ptr %15(ptr noundef nonnull align 8 dereferenceable(16) %12, ptr noundef nonnull align 8 dereferenceable(32) @_ZN7xgboost10tree_field9kSplitIdxB5cxx11E)
  %17 = load ptr, ptr %16, align 8
  %18 = getelementptr inbounds i8, ptr %17, i64 12
  %19 = load i32, ptr %18, align 4
  %20 = icmp ne i32 %19, 11
  %.not = xor i1 %11, true
  %brmerge = or i1 %20, %.not
  br i1 %brmerge, label %29, label %21

21:                                               ; preds = %2
  %22 = getelementptr inbounds i8, ptr %0, i64 160
  %23 = getelementptr inbounds i8, ptr %0, i64 16
  %24 = getelementptr inbounds i8, ptr %0, i64 40
  %25 = getelementptr inbounds i8, ptr %0, i64 64
  %26 = getelementptr inbounds i8, ptr %0, i64 136
  %27 = getelementptr inbounds i8, ptr %0, i64 88
  %28 = getelementptr inbounds i8, ptr %0, i64 112
  tail call void @_ZN7xgboost13LoadModelImplILb1ELb1EEEvRKNS_4JsonEPSt6vectorIfSaIfEEPS4_IiSaIiEESA_SA_S7_PS4_IjSaIjEEPS4_IhSaIhEE(ptr noundef nonnull align 8 dereferenceable(8) %1, ptr noundef nonnull %22, ptr noundef nonnull %23, ptr noundef nonnull %24, ptr noundef nonnull %25, ptr noundef nonnull %26, ptr noundef nonnull %27, ptr noundef nonnull %28)
  br label %48

29:                                               ; preds = %2
  %brmerge14.not = and i1 %11, %20
  br i1 %brmerge14.not, label %30, label %38

30:                                               ; preds = %29
  %31 = getelementptr inbounds i8, ptr %0, i64 160
  %32 = getelementptr inbounds i8, ptr %0, i64 16
  %33 = getelementptr inbounds i8, ptr %0, i64 40
  %34 = getelementptr inbounds i8, ptr %0, i64 64
  %35 = getelementptr inbounds i8, ptr %0, i64 136
  %36 = getelementptr inbounds i8, ptr %0, i64 88
  %37 = getelementptr inbounds i8, ptr %0, i64 112
  tail call void @_ZN7xgboost13LoadModelImplILb1ELb0EEEvRKNS_4JsonEPSt6vectorIfSaIfEEPS4_IiSaIiEESA_SA_S7_PS4_IjSaIjEEPS4_IhSaIhEE(ptr noundef nonnull align 8 dereferenceable(8) %1, ptr noundef nonnull %31, ptr noundef nonnull %32, ptr noundef nonnull %33, ptr noundef nonnull %34, ptr noundef nonnull %35, ptr noundef nonnull %36, ptr noundef nonnull %37)
  br label %48

38:                                               ; preds = %29
  %brmerge16 = or i1 %11, %20
  %39 = getelementptr inbounds i8, ptr %0, i64 160
  %40 = getelementptr inbounds i8, ptr %0, i64 16
  %41 = getelementptr inbounds i8, ptr %0, i64 40
  %42 = getelementptr inbounds i8, ptr %0, i64 64
  %43 = getelementptr inbounds i8, ptr %0, i64 136
  %44 = getelementptr inbounds i8, ptr %0, i64 88
  %45 = getelementptr inbounds i8, ptr %0, i64 112
  br i1 %brmerge16, label %47, label %46

46:                                               ; preds = %38
  tail call void @_ZN7xgboost13LoadModelImplILb0ELb1EEEvRKNS_4JsonEPSt6vectorIfSaIfEEPS4_IiSaIiEESA_SA_S7_PS4_IjSaIjEEPS4_IhSaIhEE(ptr noundef nonnull align 8 dereferenceable(8) %1, ptr noundef nonnull %39, ptr noundef nonnull %40, ptr noundef nonnull %41, ptr noundef nonnull %42, ptr noundef nonnull %43, ptr noundef nonnull %44, ptr noundef nonnull %45)
  br label %48

47:                                               ; preds = %38
  tail call void @_ZN7xgboost13LoadModelImplILb0ELb0EEEvRKNS_4JsonEPSt6vectorIfSaIfEEPS4_IiSaIiEESA_SA_S7_PS4_IjSaIjEEPS4_IhSaIhEE(ptr noundef nonnull align 8 dereferenceable(8) %1, ptr noundef nonnull %39, ptr noundef nonnull %40, ptr noundef nonnull %41, ptr noundef nonnull %42, ptr noundef nonnull %43, ptr noundef nonnull %44, ptr noundef nonnull %45)
  br label %48

48:                                               ; preds = %30, %47, %46, %21
  ret void
}